ccopy_reg
_reconstructor
p0
(cdedupe.datamodel
DataModel
p1
c__builtin__
object
p2
Ntp3
Rp4
(dp5
S'primary_fields'
p6
(lp7
g0
(cdedupe.variables.string
StringType
p8
g2
Ntp9
Rp10
(dp11
S'predicates'
p12
(lp13
g0
(cdedupe.predicates
StringPredicate
p14
g2
Ntp15
Rp16
(dp17
S'_cached_hash'
p18
I-563960895
sS'__name__'
p19
V(wholeFieldPredicate, Name)
p20
sS'func'
p21
cdedupe.predicates
wholeFieldPredicate
p22
sS'field'
p23
VName
p24
sbag0
(g14
g2
Ntp25
Rp26
(dp27
g18
I-1406964973
sg19
V(firstTokenPredicate, Name)
p28
sg21
cdedupe.predicates
firstTokenPredicate
p29
sg23
g24
sbag0
(g14
g2
Ntp30
Rp31
(dp32
g18
I320011912
sg19
V(commonIntegerPredicate, Name)
p33
sg21
cdedupe.predicates
commonIntegerPredicate
p34
sg23
g24
sbag0
(g14
g2
Ntp35
Rp36
(dp37
g18
I986546131
sg19
V(nearIntegersPredicate, Name)
p38
sg21
cdedupe.predicates
nearIntegersPredicate
p39
sg23
g24
sbag0
(g14
g2
Ntp40
Rp41
(dp42
g18
I-67451248
sg19
V(firstIntegerPredicate, Name)
p43
sg21
cdedupe.predicates
firstIntegerPredicate
p44
sg23
g24
sbag0
(g14
g2
Ntp45
Rp46
(dp47
g18
I-173129988
sg19
V(sameThreeCharStartPredicate, Name)
p48
sg21
cdedupe.predicates
sameThreeCharStartPredicate
p49
sg23
g24
sbag0
(g14
g2
Ntp50
Rp51
(dp52
g18
I1262368685
sg19
V(sameFiveCharStartPredicate, Name)
p53
sg21
cdedupe.predicates
sameFiveCharStartPredicate
p54
sg23
g24
sbag0
(g14
g2
Ntp55
Rp56
(dp57
g18
I-1374451743
sg19
V(sameSevenCharStartPredicate, Name)
p58
sg21
cdedupe.predicates
sameSevenCharStartPredicate
p59
sg23
g24
sbag0
(g14
g2
Ntp60
Rp61
(dp62
g18
I-959557496
sg19
V(commonTwoTokens, Name)
p63
sg21
cdedupe.predicates
commonTwoTokens
p64
sg23
g24
sbag0
(g14
g2
Ntp65
Rp66
(dp67
g18
I-1749596500
sg19
V(commonThreeTokens, Name)
p68
sg21
cdedupe.predicates
commonThreeTokens
p69
sg23
g24
sbag0
(g14
g2
Ntp70
Rp71
(dp72
g18
I1608934667
sg19
V(fingerprint, Name)
p73
sg21
cdedupe.predicates
fingerprint
p74
sg23
g24
sbag0
(g14
g2
Ntp75
Rp76
(dp77
g18
I-1885238389
sg19
V(oneGramFingerprint, Name)
p78
sg21
cdedupe.predicates
oneGramFingerprint
p79
sg23
g24
sbag0
(g14
g2
Ntp80
Rp81
(dp82
g18
I443461113
sg19
V(twoGramFingerprint, Name)
p83
sg21
cdedupe.predicates
twoGramFingerprint
p84
sg23
g24
sbag0
(g14
g2
Ntp85
Rp86
(dp87
g18
I912103199
sg19
V(sortedAcronym, Name)
p88
sg21
cdedupe.predicates
sortedAcronym
p89
sg23
g24
sbag0
(g14
g2
Ntp90
Rp91
(dp92
g18
I-1784679640
sg19
V(commonFourGram, Name)
p93
sg21
cdedupe.predicates
commonFourGram
p94
sg23
g24
sbag0
(g14
g2
Ntp95
Rp96
(dp97
g18
I-1058257623
sg19
V(commonSixGram, Name)
p98
sg21
cdedupe.predicates
commonSixGram
p99
sg23
g24
sbag0
(g14
g2
Ntp100
Rp101
(dp102
g18
I232019219
sg19
V(tokenFieldPredicate, Name)
p103
sg21
cdedupe.predicates
tokenFieldPredicate
p104
sg23
g24
sbag0
(g14
g2
Ntp105
Rp106
(dp107
g18
I-982037095
sg19
V(suffixArray, Name)
p108
sg21
cdedupe.predicates
suffixArray
p109
sg23
g24
sbag0
(g14
g2
Ntp110
Rp111
(dp112
g18
I-2047884261
sg19
V(doubleMetaphone, Name)
p113
sg21
cdedupe.predicates
doubleMetaphone
p114
sg23
g24
sbag0
(g14
g2
Ntp115
Rp116
(dp117
g18
I1515909054
sg19
V(metaphoneToken, Name)
p118
sg21
cdedupe.predicates
metaphoneToken
p119
sg23
g24
sbag0
(cdedupe.predicates
TfidfNGramCanopyPredicate
p120
g2
Ntp121
Rp122
(dp123
S'threshold'
p124
F0.2
sg19
V(0.2, Name)
p125
sg23
g24
sbag0
(g120
g2
Ntp126
Rp127
(dp128
g124
F0.4
sg19
V(0.4, Name)
p129
sg23
g24
sbag0
(g120
g2
Ntp130
Rp131
(dp132
g124
F0.6
sg19
V(0.6, Name)
p133
sg23
g24
sbag0
(g120
g2
Ntp134
Rp135
(dp136
g124
F0.8
sg19
V(0.8, Name)
p137
sg23
g24
sbag0
(cdedupe.predicates
TfidfNGramSearchPredicate
p138
g2
Ntp139
Rp140
(dp141
g124
F0.2
sg19
V(0.2, Name)
p142
sg23
g24
sbag0
(g138
g2
Ntp143
Rp144
(dp145
g124
F0.4
sg19
V(0.4, Name)
p146
sg23
g24
sbag0
(g138
g2
Ntp147
Rp148
(dp149
g124
F0.6
sg19
V(0.6, Name)
p150
sg23
g24
sbag0
(g138
g2
Ntp151
Rp152
(dp153
g124
F0.8
sg19
V(0.8, Name)
p154
sg23
g24
sbag0
(cdedupe.predicates
TfidfTextCanopyPredicate
p155
g2
Ntp156
Rp157
(dp158
g124
F0.2
sg19
V(0.2, Name)
p159
sg23
g24
sbag0
(g155
g2
Ntp160
Rp161
(dp162
g124
F0.4
sg19
V(0.4, Name)
p163
sg23
g24
sbag0
(g155
g2
Ntp164
Rp165
(dp166
g124
F0.6
sg19
V(0.6, Name)
p167
sg23
g24
sbag0
(g155
g2
Ntp168
Rp169
(dp170
g124
F0.8
sg19
V(0.8, Name)
p171
sg23
g24
sbag0
(cdedupe.predicates
TfidfTextSearchPredicate
p172
g2
Ntp173
Rp174
(dp175
g124
F0.2
sg19
V(0.2, Name)
p176
sg23
g24
sbag0
(g172
g2
Ntp177
Rp178
(dp179
g124
F0.4
sg19
V(0.4, Name)
p180
sg23
g24
sbag0
(g172
g2
Ntp181
Rp182
(dp183
g124
F0.6
sg19
V(0.6, Name)
p184
sg23
g24
sbag0
(g172
g2
Ntp185
Rp186
(dp187
g124
F0.8
sg19
V(0.8, Name)
p188
sg23
g24
sbasg23
g24
sS'name'
p189
V(Name: String)
p190
sS'has_missing'
p191
I00
sS'comparator'
p192
caffinegap.affinegap
normalizedAffineGapDistance
p193
sbag0
(cdedupe.variables.exact
ExactType
p194
g2
Ntp195
Rp196
(dp197
g12
(lp198
g0
(cdedupe.predicates
SimplePredicate
p199
g2
Ntp200
Rp201
(dp202
g18
I-2013814884
sg19
V(wholeFieldPredicate, Zip)
p203
sg21
g22
sg23
VZip
p204
sbasg23
g204
sg189
V(Zip: Exact)
p205
sg191
I00
sbag0
(g8
g2
Ntp206
Rp207
(dp208
g12
(lp209
g0
(g14
g2
Ntp210
Rp211
(dp212
g18
I-1749210285
sg19
V(wholeFieldPredicate, Address)
p213
sg21
g22
sg23
VAddress
p214
sbag0
(g14
g2
Ntp215
Rp216
(dp217
g18
I-1911416731
sg19
V(firstTokenPredicate, Address)
p218
sg21
g29
sg23
g214
sbag0
(g14
g2
Ntp219
Rp220
(dp221
g18
I871804688
sg19
V(commonIntegerPredicate, Address)
p222
sg21
g34
sg23
g214
sbag0
(g14
g2
Ntp223
Rp224
(dp225
g18
I-1614965443
sg19
V(nearIntegersPredicate, Address)
p226
sg21
g39
sg23
g214
sbag0
(g14
g2
Ntp227
Rp228
(dp229
g18
I-2021577116
sg19
V(firstIntegerPredicate, Address)
p230
sg21
g44
sg23
g214
sbag0
(g14
g2
Ntp231
Rp232
(dp233
g18
I210269724
sg19
V(sameThreeCharStartPredicate, Address)
p234
sg21
g49
sg23
g214
sbag0
(g14
g2
Ntp235
Rp236
(dp237
g18
I637663747
sg19
V(sameFiveCharStartPredicate, Address)
p238
sg21
g54
sg23
g214
sbag0
(g14
g2
Ntp239
Rp240
(dp241
g18
I1266925539
sg19
V(sameSevenCharStartPredicate, Address)
p242
sg21
g59
sg23
g214
sbag0
(g14
g2
Ntp243
Rp244
(dp245
g18
I-81859464
sg19
V(commonTwoTokens, Address)
p246
sg21
g64
sg23
g214
sbag0
(g14
g2
Ntp247
Rp248
(dp249
g18
I342039744
sg19
V(commonThreeTokens, Address)
p250
sg21
g69
sg23
g214
sbag0
(g14
g2
Ntp251
Rp252
(dp253
g18
I-1063153891
sg19
V(fingerprint, Address)
p254
sg21
g74
sg23
g214
sbag0
(g14
g2
Ntp255
Rp256
(dp257
g18
I-1961466499
sg19
V(oneGramFingerprint, Address)
p258
sg21
g79
sg23
g214
sbag0
(g14
g2
Ntp259
Rp260
(dp261
g18
I2026811647
sg19
V(twoGramFingerprint, Address)
p262
sg21
g84
sg23
g214
sbag0
(g14
g2
Ntp263
Rp264
(dp265
g18
I-1349578967
sg19
V(sortedAcronym, Address)
p266
sg21
g89
sg23
g214
sbag0
(g14
g2
Ntp267
Rp268
(dp269
g18
I602906800
sg19
V(commonFourGram, Address)
p270
sg21
g94
sg23
g214
sbag0
(g14
g2
Ntp271
Rp272
(dp273
g18
I-1793997133
sg19
V(commonSixGram, Address)
p274
sg21
g99
sg23
g214
sbag0
(g14
g2
Ntp275
Rp276
(dp277
g18
I1113736805
sg19
V(tokenFieldPredicate, Address)
p278
sg21
g104
sg23
g214
sbag0
(g14
g2
Ntp279
Rp280
(dp281
g18
I-1418540053
sg19
V(suffixArray, Address)
p282
sg21
g109
sg23
g214
sbag0
(g14
g2
Ntp283
Rp284
(dp285
g18
I-532366627
sg19
V(doubleMetaphone, Address)
p286
sg21
g114
sg23
g214
sbag0
(g14
g2
Ntp287
Rp288
(dp289
g18
I325889354
sg19
V(metaphoneToken, Address)
p290
sg21
g119
sg23
g214
sbag0
(g120
g2
Ntp291
Rp292
(dp293
g124
F0.2
sg19
V(0.2, Address)
p294
sg23
g214
sbag0
(g120
g2
Ntp295
Rp296
(dp297
g124
F0.4
sg19
V(0.4, Address)
p298
sg23
g214
sbag0
(g120
g2
Ntp299
Rp300
(dp301
g124
F0.6
sg19
V(0.6, Address)
p302
sg23
g214
sbag0
(g120
g2
Ntp303
Rp304
(dp305
g124
F0.8
sg19
V(0.8, Address)
p306
sg23
g214
sbag0
(g138
g2
Ntp307
Rp308
(dp309
g124
F0.2
sg19
V(0.2, Address)
p310
sg23
g214
sbag0
(g138
g2
Ntp311
Rp312
(dp313
g124
F0.4
sg19
V(0.4, Address)
p314
sg23
g214
sbag0
(g138
g2
Ntp315
Rp316
(dp317
g124
F0.6
sg19
V(0.6, Address)
p318
sg23
g214
sbag0
(g138
g2
Ntp319
Rp320
(dp321
g124
F0.8
sg19
V(0.8, Address)
p322
sg23
g214
sbag0
(g155
g2
Ntp323
Rp324
(dp325
g124
F0.2
sg19
V(0.2, Address)
p326
sg23
g214
sbag0
(g155
g2
Ntp327
Rp328
(dp329
g124
F0.4
sg19
V(0.4, Address)
p330
sg23
g214
sbag0
(g155
g2
Ntp331
Rp332
(dp333
g124
F0.6
sg19
V(0.6, Address)
p334
sg23
g214
sbag0
(g155
g2
Ntp335
Rp336
(dp337
g124
F0.8
sg19
V(0.8, Address)
p338
sg23
g214
sbag0
(g172
g2
Ntp339
Rp340
(dp341
g124
F0.2
sg19
V(0.2, Address)
p342
sg23
g214
sbag0
(g172
g2
Ntp343
Rp344
(dp345
g124
F0.4
sg19
V(0.4, Address)
p346
sg23
g214
sbag0
(g172
g2
Ntp347
Rp348
(dp349
g124
F0.6
sg19
V(0.6, Address)
p350
sg23
g214
sbag0
(g172
g2
Ntp351
Rp352
(dp353
g124
F0.8
sg19
V(0.8, Address)
p354
sg23
g214
sbasg23
g214
sg189
V(Address: String)
p355
sg191
I00
sg192
g193
sbasS'_variables'
p356
(lp357
g10
ag196
ag207
asS'_missing_field_indices'
p358
(lp359
sS'_derived_start'
p360
I3
sS'_interaction_indices'
p361
(lp362
sb.ccopy_reg
_reconstructor
p0
(crlr.lr
RegularizedLogisticRegression
p1
c__builtin__
object
p2
Ntp3
Rp4
(dp5
S'alpha'
p6
F0.1
sS'bias'
p7
cnumpy.core.multiarray
scalar
p8
(cnumpy
dtype
p9
(S'f8'
p10
I0
I1
tp11
Rp12
(I3
S'<'
p13
NNNI-1
I-1
I0
tp14
bS'\x87\xd3AQ\xe7\x823@'
p15
tp16
Rp17
sS'num_cores'
p18
I0
sS'cv'
p19
I3
sS'weights'
p20
cnumpy.core.multiarray
_reconstruct
p21
(cnumpy
ndarray
p22
(I0
tp23
S'b'
p24
tp25
Rp26
(I1
(L3L
tp27
g12
I00
S"\x12\xa6h\x13\x13\xb4\x0c@0v\xfd}`2\xc3>S\xed'\xa9h3!\xc0"
p28
tp29
bsb.(ccopy_reg
_reconstructor
p0
(cdedupe.predicates
CompoundPredicate
p1
c__builtin__
tuple
p2
(g0
(cdedupe.predicates
StringPredicate
p3
c__builtin__
object
p4
Ntp5
Rp6
(dp7
S'_cached_hash'
p8
I-563960895
sS'__name__'
p9
V(wholeFieldPredicate, Name)
p10
sS'func'
p11
cdedupe.predicates
wholeFieldPredicate
p12
sS'field'
p13
VName
p14
sbg0
(cdedupe.predicates
SimplePredicate
p15
g4
Ntp16
Rp17
(dp18
g8
I-2013814884
sg9
V(wholeFieldPredicate, Zip)
p19
sg11
g12
sg13
VZip
p20
sbtp21
tp22
Rp23
tp24
.