ccopy_reg
_reconstructor
p0
(cdedupe.datamodel
DataModel
p1
c__builtin__
object
p2
Ntp3
Rp4
(dp5
S'primary_fields'
p6
(lp7
g0
(cdedupe.variables.string
StringType
p8
g2
Ntp9
Rp10
(dp11
S'predicates'
p12
(lp13
g0
(cdedupe.predicates
StringPredicate
p14
g2
Ntp15
Rp16
(dp17
S'_cached_hash'
p18
I6410461724531563761
sS'__name__'
p19
V(wholeFieldPredicate, Phone)
p20
sS'func'
p21
cdedupe.predicates
wholeFieldPredicate
p22
sS'field'
p23
VPhone
p24
sbag0
(g14
g2
Ntp25
Rp26
(dp27
g18
I-9083105583828109333
sg19
V(firstTokenPredicate, Phone)
p28
sg21
cdedupe.predicates
firstTokenPredicate
p29
sg23
g24
sbag0
(g14
g2
Ntp30
Rp31
(dp32
g18
I2973062451850511518
sg19
V(commonIntegerPredicate, Phone)
p33
sg21
cdedupe.predicates
commonIntegerPredicate
p34
sg23
g24
sbag0
(g14
g2
Ntp35
Rp36
(dp37
g18
I-1760885962446012989
sg19
V(nearIntegersPredicate, Phone)
p38
sg21
cdedupe.predicates
nearIntegersPredicate
p39
sg23
g24
sbag0
(g14
g2
Ntp40
Rp41
(dp42
g18
I3130978320515755934
sg19
V(firstIntegerPredicate, Phone)
p43
sg21
cdedupe.predicates
firstIntegerPredicate
p44
sg23
g24
sbag0
(g14
g2
Ntp45
Rp46
(dp47
g18
I572703418347365222
sg19
V(sameThreeCharStartPredicate, Phone)
p48
sg21
cdedupe.predicates
sameThreeCharStartPredicate
p49
sg23
g24
sbag0
(g14
g2
Ntp50
Rp51
(dp52
g18
I-7773597342498170843
sg19
V(sameFiveCharStartPredicate, Phone)
p53
sg21
cdedupe.predicates
sameFiveCharStartPredicate
p54
sg23
g24
sbag0
(g14
g2
Ntp55
Rp56
(dp57
g18
I-5705151467061299567
sg19
V(sameSevenCharStartPredicate, Phone)
p58
sg21
cdedupe.predicates
sameSevenCharStartPredicate
p59
sg23
g24
sbag0
(g14
g2
Ntp60
Rp61
(dp62
g18
I3073795256519914082
sg19
V(commonTwoTokens, Phone)
p63
sg21
cdedupe.predicates
commonTwoTokens
p64
sg23
g24
sbag0
(g14
g2
Ntp65
Rp66
(dp67
g18
I7924310317743081618
sg19
V(commonThreeTokens, Phone)
p68
sg21
cdedupe.predicates
commonThreeTokens
p69
sg23
g24
sbag0
(g14
g2
Ntp70
Rp71
(dp72
g18
I-8732054964909911981
sg19
V(fingerprint, Phone)
p73
sg21
cdedupe.predicates
fingerprint
p74
sg23
g24
sbag0
(g14
g2
Ntp75
Rp76
(dp77
g18
I-5168341012184767641
sg19
V(oneGramFingerprint, Phone)
p78
sg21
cdedupe.predicates
oneGramFingerprint
p79
sg23
g24
sbag0
(g14
g2
Ntp80
Rp81
(dp82
g18
I-1938556535271651055
sg19
V(twoGramFingerprint, Phone)
p83
sg21
cdedupe.predicates
twoGramFingerprint
p84
sg23
g24
sbag0
(g14
g2
Ntp85
Rp86
(dp87
g18
I-2826791359150570713
sg19
V(sortedAcronym, Phone)
p88
sg21
cdedupe.predicates
sortedAcronym
p89
sg23
g24
sbag0
(g14
g2
Ntp90
Rp91
(dp92
g18
I-1553189275330008834
sg19
V(commonFourGram, Phone)
p93
sg21
cdedupe.predicates
commonFourGram
p94
sg23
g24
sbag0
(g14
g2
Ntp95
Rp96
(dp97
g18
I-7928302116548927759
sg19
V(commonSixGram, Phone)
p98
sg21
cdedupe.predicates
commonSixGram
p99
sg23
g24
sbag0
(g14
g2
Ntp100
Rp101
(dp102
g18
I1234515014517274091
sg19
V(tokenFieldPredicate, Phone)
p103
sg21
cdedupe.predicates
tokenFieldPredicate
p104
sg23
g24
sbag0
(g14
g2
Ntp105
Rp106
(dp107
g18
I7600663209691611273
sg19
V(suffixArray, Phone)
p108
sg21
cdedupe.predicates
suffixArray
p109
sg23
g24
sbag0
(g14
g2
Ntp110
Rp111
(dp112
g18
I5523360571085405163
sg19
V(doubleMetaphone, Phone)
p113
sg21
cdedupe.predicates
doubleMetaphone
p114
sg23
g24
sbag0
(g14
g2
Ntp115
Rp116
(dp117
g18
I7161137989658942024
sg19
V(metaphoneToken, Phone)
p118
sg21
cdedupe.predicates
metaphoneToken
p119
sg23
g24
sbag0
(cdedupe.predicates
TfidfNGramCanopyPredicate
p120
g2
Ntp121
Rp122
(dp123
S'threshold'
p124
F0.2
sg19
V(0.2, Phone)
p125
sg23
g24
sbag0
(g120
g2
Ntp126
Rp127
(dp128
g124
F0.4
sg19
V(0.4, Phone)
p129
sg23
g24
sbag0
(g120
g2
Ntp130
Rp131
(dp132
g124
F0.6
sg19
V(0.6, Phone)
p133
sg23
g24
sbag0
(g120
g2
Ntp134
Rp135
(dp136
g124
F0.8
sg19
V(0.8, Phone)
p137
sg23
g24
sbag0
(cdedupe.predicates
TfidfNGramSearchPredicate
p138
g2
Ntp139
Rp140
(dp141
g124
F0.2
sg19
V(0.2, Phone)
p142
sg23
g24
sbag0
(g138
g2
Ntp143
Rp144
(dp145
g124
F0.4
sg19
V(0.4, Phone)
p146
sg23
g24
sbag0
(g138
g2
Ntp147
Rp148
(dp149
g124
F0.6
sg19
V(0.6, Phone)
p150
sg23
g24
sbag0
(g138
g2
Ntp151
Rp152
(dp153
g124
F0.8
sg19
V(0.8, Phone)
p154
sg23
g24
sbag0
(cdedupe.predicates
TfidfTextCanopyPredicate
p155
g2
Ntp156
Rp157
(dp158
g124
F0.2
sg19
V(0.2, Phone)
p159
sg23
g24
sbag0
(g155
g2
Ntp160
Rp161
(dp162
g124
F0.4
sg19
V(0.4, Phone)
p163
sg23
g24
sbag0
(g155
g2
Ntp164
Rp165
(dp166
g124
F0.6
sg19
V(0.6, Phone)
p167
sg23
g24
sbag0
(g155
g2
Ntp168
Rp169
(dp170
g124
F0.8
sg19
V(0.8, Phone)
p171
sg23
g24
sbag0
(cdedupe.predicates
TfidfTextSearchPredicate
p172
g2
Ntp173
Rp174
(dp175
g124
F0.2
sg19
V(0.2, Phone)
p176
sg23
g24
sbag0
(g172
g2
Ntp177
Rp178
(dp179
g124
F0.4
sg19
V(0.4, Phone)
p180
sg23
g24
sbag0
(g172
g2
Ntp181
Rp182
(dp183
g124
F0.6
sg19
V(0.6, Phone)
p184
sg23
g24
sbag0
(g172
g2
Ntp185
Rp186
(dp187
g124
F0.8
sg19
V(0.8, Phone)
p188
sg23
g24
sbasg23
g24
sS'name'
p189
V(Phone: String)
p190
sS'has_missing'
p191
I00
sS'comparator'
p192
caffinegap.affinegap
normalizedAffineGapDistance
p193
sbag0
(g8
g2
Ntp194
Rp195
(dp196
g12
(lp197
g0
(g14
g2
Ntp198
Rp199
(dp200
g18
I5671443427162401619
sg19
V(wholeFieldPredicate, Address)
p201
sg21
g22
sg23
VAddress
p202
sbag0
(g14
g2
Ntp203
Rp204
(dp205
g18
I-6144244722235729819
sg19
V(firstTokenPredicate, Address)
p206
sg21
g29
sg23
g202
sbag0
(g14
g2
Ntp207
Rp208
(dp209
g18
I-6105001349865885936
sg19
V(commonIntegerPredicate, Address)
p210
sg21
g34
sg23
g202
sbag0
(g14
g2
Ntp211
Rp212
(dp213
g18
I4311792128687445309
sg19
V(nearIntegersPredicate, Address)
p214
sg21
g39
sg23
g202
sbag0
(g14
g2
Ntp215
Rp216
(dp217
g18
I1112459212690108004
sg19
V(firstIntegerPredicate, Address)
p218
sg21
g44
sg23
g202
sbag0
(g14
g2
Ntp219
Rp220
(dp221
g18
I2476103115129517596
sg19
V(sameThreeCharStartPredicate, Address)
p222
sg21
g49
sg23
g202
sbag0
(g14
g2
Ntp223
Rp224
(dp225
g18
I-1081331885272860157
sg19
V(sameFiveCharStartPredicate, Address)
p226
sg21
g54
sg23
g202
sbag0
(g14
g2
Ntp227
Rp228
(dp229
g18
I4854036202275454947
sg19
V(sameSevenCharStartPredicate, Address)
p230
sg21
g59
sg23
g202
sbag0
(g14
g2
Ntp231
Rp232
(dp233
g18
I6644754370395040888
sg19
V(commonTwoTokens, Address)
p234
sg21
g64
sg23
g202
sbag0
(g14
g2
Ntp235
Rp236
(dp237
g18
I-3022822841853469504
sg19
V(commonThreeTokens, Address)
p238
sg21
g69
sg23
g202
sbag0
(g14
g2
Ntp239
Rp240
(dp241
g18
I6174096197962272541
sg19
V(fingerprint, Address)
p242
sg21
g74
sg23
g202
sbag0
(g14
g2
Ntp243
Rp244
(dp245
g18
I3046490261813618045
sg19
V(oneGramFingerprint, Address)
p246
sg21
g79
sg23
g202
sbag0
(g14
g2
Ntp247
Rp248
(dp249
g18
I-4528934104119463681
sg19
V(twoGramFingerprint, Address)
p250
sg21
g84
sg23
g202
sbag0
(g14
g2
Ntp251
Rp252
(dp253
g18
I3238180657210265385
sg19
V(sortedAcronym, Address)
p254
sg21
g89
sg23
g202
sbag0
(g14
g2
Ntp255
Rp256
(dp257
g18
I-1165911001230499664
sg19
V(commonFourGram, Address)
p258
sg21
g94
sg23
g202
sbag0
(g14
g2
Ntp259
Rp260
(dp261
g18
I-381466026223483213
sg19
V(commonSixGram, Address)
p262
sg21
g99
sg23
g202
sbag0
(g14
g2
Ntp263
Rp264
(dp265
g18
I1177255931426260581
sg19
V(tokenFieldPredicate, Address)
p266
sg21
g104
sg23
g202
sbag0
(g14
g2
Ntp267
Rp268
(dp269
g18
I6245013628151581675
sg19
V(suffixArray, Address)
p270
sg21
g109
sg23
g202
sbag0
(g14
g2
Ntp271
Rp272
(dp273
g18
I-7390532110034617635
sg19
V(doubleMetaphone, Address)
p274
sg21
g114
sg23
g202
sbag0
(g14
g2
Ntp275
Rp276
(dp277
g18
I6462365307518102858
sg19
V(metaphoneToken, Address)
p278
sg21
g119
sg23
g202
sbag0
(g120
g2
Ntp279
Rp280
(dp281
g124
F0.2
sg19
V(0.2, Address)
p282
sg23
g202
sbag0
(g120
g2
Ntp283
Rp284
(dp285
g124
F0.4
sg19
V(0.4, Address)
p286
sg23
g202
sbag0
(g120
g2
Ntp287
Rp288
(dp289
g124
F0.6
sg19
V(0.6, Address)
p290
sg23
g202
sbag0
(g120
g2
Ntp291
Rp292
(dp293
g124
F0.8
sg19
V(0.8, Address)
p294
sg23
g202
sbag0
(g138
g2
Ntp295
Rp296
(dp297
g124
F0.2
sg19
V(0.2, Address)
p298
sg23
g202
sbag0
(g138
g2
Ntp299
Rp300
(dp301
g124
F0.4
sg19
V(0.4, Address)
p302
sg23
g202
sbag0
(g138
g2
Ntp303
Rp304
(dp305
g124
F0.6
sg19
V(0.6, Address)
p306
sg23
g202
sbag0
(g138
g2
Ntp307
Rp308
(dp309
g124
F0.8
sg19
V(0.8, Address)
p310
sg23
g202
sbag0
(g155
g2
Ntp311
Rp312
(dp313
g124
F0.2
sg19
V(0.2, Address)
p314
sg23
g202
sbag0
(g155
g2
Ntp315
Rp316
(dp317
g124
F0.4
sg19
V(0.4, Address)
p318
sg23
g202
sbag0
(g155
g2
Ntp319
Rp320
(dp321
g124
F0.6
sg19
V(0.6, Address)
p322
sg23
g202
sbag0
(g155
g2
Ntp323
Rp324
(dp325
g124
F0.8
sg19
V(0.8, Address)
p326
sg23
g202
sbag0
(g172
g2
Ntp327
Rp328
(dp329
g124
F0.2
sg19
V(0.2, Address)
p330
sg23
g202
sbag0
(g172
g2
Ntp331
Rp332
(dp333
g124
F0.4
sg19
V(0.4, Address)
p334
sg23
g202
sbag0
(g172
g2
Ntp335
Rp336
(dp337
g124
F0.6
sg19
V(0.6, Address)
p338
sg23
g202
sbag0
(g172
g2
Ntp339
Rp340
(dp341
g124
F0.8
sg19
V(0.8, Address)
p342
sg23
g202
sbasg23
g202
sg189
V(Address: String)
p343
sg191
I00
sg192
g193
sbag0
(cdedupe.variables.exact
ExactType
p344
g2
Ntp345
Rp346
(dp347
g12
(lp348
g0
(cdedupe.predicates
SimplePredicate
p349
g2
Ntp350
Rp351
(dp352
g18
I-2049731014695608420
sg19
V(wholeFieldPredicate, Zip)
p353
sg21
g22
sg23
VZip
p354
sbasg23
g354
sg189
V(Zip: Exact)
p355
sg191
I00
sbag0
(g8
g2
Ntp356
Rp357
(dp358
g12
(lp359
g0
(g14
g2
Ntp360
Rp361
(dp362
g18
I-6626315475449539257
sg19
V(wholeFieldPredicate, Site name)
p363
sg21
g22
sg23
VSite name
p364
sbag0
(g14
g2
Ntp365
Rp366
(dp367
g18
I-1676047828946474887
sg19
V(firstTokenPredicate, Site name)
p368
sg21
g29
sg23
g364
sbag0
(g14
g2
Ntp369
Rp370
(dp371
g18
I-1840087744078989916
sg19
V(commonIntegerPredicate, Site name)
p372
sg21
g34
sg23
g364
sbag0
(g14
g2
Ntp373
Rp374
(dp375
g18
I7817470067179259029
sg19
V(nearIntegersPredicate, Site name)
p376
sg21
g39
sg23
g364
sbag0
(g14
g2
Ntp377
Rp378
(dp379
g18
I-4623847622460082484
sg19
V(firstIntegerPredicate, Site name)
p380
sg21
g44
sg23
g364
sbag0
(g14
g2
Ntp381
Rp382
(dp383
g18
I3717826838427274128
sg19
V(sameThreeCharStartPredicate, Site name)
p384
sg21
g49
sg23
g364
sbag0
(g14
g2
Ntp385
Rp386
(dp387
g18
I6684586677310732519
sg19
V(sameFiveCharStartPredicate, Site name)
p388
sg21
g54
sg23
g364
sbag0
(g14
g2
Ntp389
Rp390
(dp391
g18
I8535006692776020103
sg19
V(sameSevenCharStartPredicate, Site name)
p392
sg21
g59
sg23
g364
sbag0
(g14
g2
Ntp393
Rp394
(dp395
g18
I-2742899307456897812
sg19
V(commonTwoTokens, Site name)
p396
sg21
g64
sg23
g364
sbag0
(g14
g2
Ntp397
Rp398
(dp399
g18
I4555108844113193512
sg19
V(commonThreeTokens, Site name)
p400
sg21
g69
sg23
g364
sbag0
(g14
g2
Ntp401
Rp402
(dp403
g18
I-2539214338929963279
sg19
V(fingerprint, Site name)
p404
sg21
g74
sg23
g364
sbag0
(g14
g2
Ntp405
Rp406
(dp407
g18
I6213838375728881137
sg19
V(oneGramFingerprint, Site name)
p408
sg21
g79
sg23
g364
sbag0
(g14
g2
Ntp409
Rp410
(dp411
g18
I-706507478314931557
sg19
V(twoGramFingerprint, Site name)
p412
sg21
g84
sg23
g364
sbag0
(g14
g2
Ntp413
Rp414
(dp415
g18
I3428609802947094529
sg19
V(sortedAcronym, Site name)
p416
sg21
g89
sg23
g364
sbag0
(g14
g2
Ntp417
Rp418
(dp419
g18
I-5596487637730070380
sg19
V(commonFourGram, Site name)
p420
sg21
g94
sg23
g364
sbag0
(g14
g2
Ntp421
Rp422
(dp423
g18
I1113996927219811987
sg19
V(commonSixGram, Site name)
p424
sg21
g99
sg23
g364
sbag0
(g14
g2
Ntp425
Rp426
(dp427
g18
I5056999849257551481
sg19
V(tokenFieldPredicate, Site name)
p428
sg21
g104
sg23
g364
sbag0
(g14
g2
Ntp429
Rp430
(dp431
g18
I3919160856651086543
sg19
V(suffixArray, Site name)
p432
sg21
g109
sg23
g364
sbag0
(g14
g2
Ntp433
Rp434
(dp435
g18
I-4980054313565849079
sg19
V(doubleMetaphone, Site name)
p436
sg21
g114
sg23
g364
sbag0
(g14
g2
Ntp437
Rp438
(dp439
g18
I1648589523656384038
sg19
V(metaphoneToken, Site name)
p440
sg21
g119
sg23
g364
sbag0
(g120
g2
Ntp441
Rp442
(dp443
g124
F0.2
sg19
V(0.2, Site name)
p444
sg23
g364
sbag0
(g120
g2
Ntp445
Rp446
(dp447
g124
F0.4
sg19
V(0.4, Site name)
p448
sg23
g364
sbag0
(g120
g2
Ntp449
Rp450
(dp451
g124
F0.6
sg19
V(0.6, Site name)
p452
sg23
g364
sbag0
(g120
g2
Ntp453
Rp454
(dp455
g124
F0.8
sg19
V(0.8, Site name)
p456
sg23
g364
sbag0
(g138
g2
Ntp457
Rp458
(dp459
g124
F0.2
sg19
V(0.2, Site name)
p460
sg23
g364
sbag0
(g138
g2
Ntp461
Rp462
(dp463
g124
F0.4
sg19
V(0.4, Site name)
p464
sg23
g364
sbag0
(g138
g2
Ntp465
Rp466
(dp467
g124
F0.6
sg19
V(0.6, Site name)
p468
sg23
g364
sbag0
(g138
g2
Ntp469
Rp470
(dp471
g124
F0.8
sg19
V(0.8, Site name)
p472
sg23
g364
sbag0
(g155
g2
Ntp473
Rp474
(dp475
g124
F0.2
sg19
V(0.2, Site name)
p476
sg23
g364
sbag0
(g155
g2
Ntp477
Rp478
(dp479
g124
F0.4
sg19
V(0.4, Site name)
p480
sg23
g364
sbag0
(g155
g2
Ntp481
Rp482
(dp483
g124
F0.6
sg19
V(0.6, Site name)
p484
sg23
g364
sbag0
(g155
g2
Ntp485
Rp486
(dp487
g124
F0.8
sg19
V(0.8, Site name)
p488
sg23
g364
sbag0
(g172
g2
Ntp489
Rp490
(dp491
g124
F0.2
sg19
V(0.2, Site name)
p492
sg23
g364
sbag0
(g172
g2
Ntp493
Rp494
(dp495
g124
F0.4
sg19
V(0.4, Site name)
p496
sg23
g364
sbag0
(g172
g2
Ntp497
Rp498
(dp499
g124
F0.6
sg19
V(0.6, Site name)
p500
sg23
g364
sbag0
(g172
g2
Ntp501
Rp502
(dp503
g124
F0.8
sg19
V(0.8, Site name)
p504
sg23
g364
sbasg23
g364
sg189
V(Site name: String)
p505
sg191
I00
sg192
g193
sbasS'_variables'
p506
(lp507
g10
ag195
ag346
ag357
asS'_missing_field_indices'
p508
(lp509
sS'_derived_start'
p510
I4
sS'_interaction_indices'
p511
(lp512
sb.ccopy_reg
_reconstructor
p0
(crlr.lr
RegularizedLogisticRegression
p1
c__builtin__
object
p2
Ntp3
Rp4
(dp5
S'alpha'
p6
F0.01
sS'bias'
p7
cnumpy.core.multiarray
scalar
p8
(cnumpy
dtype
p9
(S'f8'
p10
I0
I1
tp11
Rp12
(I3
S'<'
p13
NNNI-1
I-1
I0
tp14
bS'\xe7\x02R\xdaq4\xe8\xbf'
p15
tp16
Rp17
sS'num_cores'
p18
I0
sS'cv'
p19
I3
sS'weights'
p20
cnumpy.core.multiarray
_reconstruct
p21
(cnumpy
ndarray
p22
(I0
tp23
S'b'
p24
tp25
Rp26
(I1
(I4
tp27
g12
I00
S'\xc9\x89\xf7\x9c\xeas\x06\xc0\x81\xb1\x9eb\x7f\x92\xf0\xbf\nJ%Q\xe3\xbd\xf1?\xac\xf23\xd4\x11-\xf5?'
p28
tp29
bsb.(ccopy_reg
_reconstructor
p0
(cdedupe.predicates
CompoundPredicate
p1
c__builtin__
tuple
p2
(g0
(cdedupe.predicates
StringPredicate
p3
c__builtin__
object
p4
Ntp5
Rp6
(dp7
S'_cached_hash'
p8
I-6626315475449539257
sS'__name__'
p9
V(wholeFieldPredicate, Site name)
p10
sS'func'
p11
cdedupe.predicates
wholeFieldPredicate
p12
sS'field'
p13
VSite name
p14
sbg0
(cdedupe.predicates
SimplePredicate
p15
g4
Ntp16
Rp17
(dp18
g8
I-2049731014695608420
sg9
V(wholeFieldPredicate, Zip)
p19
sg11
g12
sg13
VZip
p20
sbtp21
tp22
Rp23
g0
(g1
g2
(g17
g0
(cdedupe.predicates
TfidfNGramCanopyPredicate
p24
g4
Ntp25
Rp26
(dp27
S'threshold'
p28
F0.8
sg9
V(0.8, Address)
p29
sg13
VAddress
p30
sbtp31
tp32
Rp33
tp34
.